target datalayout = "e-m:e-p270:32:32-p271:32:32-p272:64:64-i64:64-i128:128-f80:128-n8:16:32:64-S128"
target triple = "x86_64-pc-linux-gnu"

%struct.archive = type { i32, i32, ptr, i32, ptr, i32, i32, ptr, %struct.archive_string, ptr, i32, i32, ptr, ptr, i64, i64, i64, i8, i64 }
%struct.archive_string = type { ptr, i64, i64 }
%struct.__va_list_tag = type { i32, i32, ptr, ptr }

; Function Attrs: nounwind uwtable
define dso_local void @archive_set_error(ptr noundef %0, i32 noundef %1, ptr noundef %2, ...) #0 {
  %4 = alloca ptr, align 8
  %5 = alloca i32, align 4
  %6 = alloca ptr, align 8
  %7 = alloca [1 x %struct.__va_list_tag], align 16
  %8 = alloca i32, align 4
  store ptr %0, ptr %4, align 8, !tbaa !4
  store i32 %1, ptr %5, align 4, !tbaa !23
  store ptr %2, ptr %6, align 8, !tbaa !24
  call void @llvm.lifetime.start.p0(i64 24, ptr %7) #9
  %9 = load i32, ptr %5, align 4, !tbaa !23
  %10 = load ptr, ptr %4, align 8, !tbaa !4
  %11 = getelementptr inbounds nuw %struct.archive, ptr %10, i32 0, i32 6
  store i32 %9, ptr %11, align 4, !tbaa !9
  %12 = load ptr, ptr %6, align 8, !tbaa !24
  %13 = icmp eq ptr %12, null
  br i1 %13, label %14, label %17

14:                                               ; preds = %3
  %15 = load ptr, ptr %4, align 8, !tbaa !4
  %16 = getelementptr inbounds nuw %struct.archive, ptr %15, i32 0, i32 7
  store ptr null, ptr %16, align 8, !tbaa !17
  store i32 1, ptr %8, align 4
  br label %33

17:                                               ; preds = %3
  %18 = load ptr, ptr %4, align 8, !tbaa !4
  %19 = getelementptr inbounds nuw %struct.archive, ptr %18, i32 0, i32 8
  %20 = getelementptr inbounds nuw %struct.archive_string, ptr %19, i32 0, i32 1
  store i64 0, ptr %20, align 8, !tbaa !22
  %21 = getelementptr inbounds [1 x %struct.__va_list_tag], ptr %7, i64 0, i64 0
  call void @llvm.va_start.p0(ptr %21)
  %22 = load ptr, ptr %4, align 8, !tbaa !4
  %23 = getelementptr inbounds nuw %struct.archive, ptr %22, i32 0, i32 8
  %24 = load ptr, ptr %6, align 8, !tbaa !24
  %25 = getelementptr inbounds [1 x %struct.__va_list_tag], ptr %7, i64 0, i64 0
  call void @archive_string_vsprintf(ptr noundef %23, ptr noundef %24, ptr noundef %25)
  %26 = getelementptr inbounds [1 x %struct.__va_list_tag], ptr %7, i64 0, i64 0
  call void @llvm.va_end.p0(ptr %26)
  %27 = load ptr, ptr %4, align 8, !tbaa !4
  %28 = getelementptr inbounds nuw %struct.archive, ptr %27, i32 0, i32 8
  %29 = getelementptr inbounds nuw %struct.archive_string, ptr %28, i32 0, i32 0
  %30 = load ptr, ptr %29, align 8, !tbaa !25
  %31 = load ptr, ptr %4, align 8, !tbaa !4
  %32 = getelementptr inbounds nuw %struct.archive, ptr %31, i32 0, i32 7
  store ptr %30, ptr %32, align 8, !tbaa !17
  store i32 0, ptr %8, align 4
  br label %33

33:                                               ; preds = %17, %14
  call void @llvm.lifetime.end.p0(i64 24, ptr %7) #9
  %34 = load i32, ptr %8, align 4
  switch i32 %34, label %36 [
    i32 0, label %35
    i32 1, label %35
  ]

35:                                               ; preds = %33, %33
  ret void

36:                                               ; preds = %33
  unreachable
}