; Function Attrs: nounwind uwtable
define dso_local void @archive_set_error(ptr noundef initializes((36, 40)) %0, i32 noundef %1, ptr noundef %2, ...) local_unnamed_addr #0 {
  %4 = alloca [1 x %struct.__va_list_tag], align 16
  call void @llvm.lifetime.start.p0(i64 24, ptr nonnull %4) #18
  %5 = getelementptr inbounds nuw i8, ptr %0, i64 36
  store i32 %1, ptr %5, align 4, !tbaa !4
  %6 = icmp eq ptr %2, null
  br i1 %6, label %11, label %7

7:                                                ; preds = %3
  %8 = getelementptr inbounds nuw i8, ptr %0, i64 48
  %9 = getelementptr inbounds nuw i8, ptr %0, i64 56
  store i64 0, ptr %9, align 8, !tbaa !20
  call void @llvm.va_start.p0(ptr nonnull %4)
  call void @archive_string_vsprintf(ptr noundef nonnull %8, ptr noundef nonnull %2, ptr noundef nonnull %4) #18
  call void @llvm.va_end.p0(ptr nonnull %4)
  %10 = load ptr, ptr %8, align 8, !tbaa !21
  br label %11

11:                                               ; preds = %3, %7
  %.sink = phi ptr [ %10, %7 ], [ null, %3 ]
  %12 = getelementptr inbounds nuw i8, ptr %0, i64 40
  store ptr %.sink, ptr %12, align 8, !tbaa !15
  call void @llvm.lifetime.end.p0(i64 24, ptr nonnull %4) #18
  ret void
}